(dp1
S'spearman'
p2
(dp3
S'random_forest_all_features_300_days'
p4
I266
sS'mlp_all_features_300_days'
p5
I551
sS'knn_11nn_distance_all_feat_300_days'
p6
I135
sS'lin_svr_c1e3_all_features_300_days'
p7
I673
sS'total'
p8
I2555
sS'bayesian_regression_all_features_300_days'
p9
I930
ssS'random'
p10
(dp11
S'random_forest_all_features_300_days'
p12
I501
sS'mlp_all_features_300_days'
p13
I483
sS'knn_11nn_distance_all_feat_300_days'
p14
I511
sS'lin_svr_c1e3_all_features_300_days'
p15
I547
sS'total'
p16
I2555
sS'bayesian_regression_all_features_300_days'
p17
I513
ssS'mae'
p18
(dp19
S'random_forest_all_features_300_days'
p20
I435
sS'mlp_all_features_300_days'
p21
I326
sS'knn_11nn_distance_all_feat_300_days'
p22
I652
sS'lin_svr_c1e3_all_features_300_days'
p23
I1021
sS'total'
p24
I2555
sS'bayesian_regression_all_features_300_days'
p25
I121
ssS'w_spearman_o3'
p26
(dp27
S'random_forest_all_features_300_days'
p28
I301
sS'mlp_all_features_300_days'
p29
I547
sS'knn_11nn_distance_all_feat_300_days'
p30
I145
sS'lin_svr_c1e3_all_features_300_days'
p31
I717
sS'total'
p32
I2555
sS'bayesian_regression_all_features_300_days'
p33
I845
ssS'w_spearman_max'
p34
(dp35
S'random_forest_all_features_300_days'
p36
I268
sS'mlp_all_features_300_days'
p37
I526
sS'knn_11nn_distance_all_feat_300_days'
p38
I138
sS'lin_svr_c1e3_all_features_300_days'
p39
I751
sS'total'
p40
I2555
sS'bayesian_regression_all_features_300_days'
p41
I872
ss.